; Function Attrs: mustprogress uwtable
define hidden void @_ZN4cvc58internal7options8handlers12handleOptionINS0_10ManagedErrEEET_RKNSt7__cxx1112basic_stringIcSt11char_traitsIcESaIcEEESD_(ptr noalias nonnull sret(%"class.cvc5::internal::ManagedErr") align 8 %agg.result, ptr nocapture nonnull readnone align 8 %flag, ptr noundef nonnull align 8 dereferenceable(32) %optionarg) local_unnamed_addr #4 personality ptr @__gxx_personality_v0 {
entry:
  tail call void @_ZN4cvc58internal10ManagedErrC1Ev(ptr noundef nonnull align 8 dereferenceable(64) %agg.result)
  invoke void @_ZN4cvc58internal13ManagedStreamISoE4openERKNSt7__cxx1112basic_stringIcSt11char_traitsIcESaIcEEE(ptr noundef nonnull align 8 dereferenceable(64) %agg.result, ptr noundef nonnull align 8 dereferenceable(32) %optionarg)
          to label %nrvo.skipdtor unwind label %lpad

lpad:                                             ; preds = %entry
  %0 = landingpad { ptr, i32 }
          cleanup
  tail call void @_ZN4cvc58internal10ManagedErrD2Ev(ptr noundef nonnull align 8 dereferenceable(64) %agg.result) #21
  resume { ptr, i32 } %0

nrvo.skipdtor:                                    ; preds = %entry
  ret void
}